; Function Attrs: mustprogress uwtable
define void @_ZN3gmx19StatePropagatorData26updateReferenceTemperatureENS_8ArrayRefIKfEENS_35ReferenceTemperatureChangeAlgorithmE(ptr nocapture noundef nonnull readonly align 8 dereferenceable(632) %0, ptr %1, ptr %2, i32 noundef %3) local_unnamed_addr #0 align 2 {
  %5 = getelementptr inbounds i8, ptr %0, i64 544
  %6 = load ptr, ptr %5, align 8
  %7 = ptrtoint ptr %2 to i64
  %8 = ptrtoint ptr %1 to i64
  %9 = sub i64 %7, %8
  %10 = getelementptr inbounds i8, ptr %1, i64 %9
  tail call void @_ZN3gmx19StatePropagatorData26ReferenceTemperatureHelper26updateReferenceTemperatureENS_8ArrayRefIKfEENS_35ReferenceTemperatureChangeAlgorithmE(ptr noundef nonnull align 8 dereferenceable(72) %6, ptr %1, ptr %10, i32 noundef %3)
  ret void
}